; ModuleID = '34/238.c'
source_filename = "34/238.c"
target datalayout = "e-m:e-p270:32:32-p271:32:32-p272:64:64-i64:64-f80:128-n8:16:32:64-S128"
target triple = "x86_64-pc-linux-gnu"

@.str = private unnamed_addr constant [3 x i8] c"%d\00", align 1
@.str.1 = private unnamed_addr constant [3 x i8] c"%s\00", align 1
@.str.2 = private unnamed_addr constant [4 x i8] c"End\00", align 1
@.str.3 = private unnamed_addr constant [12 x i8] c"%d%c%d%c%d\0A\00", align 1
@.str.4 = private unnamed_addr constant [16 x i8] c"%d%c%d%c%d%c%d\0A\00", align 1

; Function Attrs: noinline nounwind uwtable
define dso_local i32 @main() #0 {
  %1 = alloca i32, align 4
  %2 = alloca i32, align 4
  %3 = alloca i32, align 4
  %4 = alloca i32, align 4
  %5 = alloca i32, align 4
  %6 = alloca i32, align 4
  %7 = alloca i32, align 4
  %8 = alloca i32, align 4
  %9 = alloca i32, align 4
  %10 = alloca i32, align 4
  %11 = alloca i32, align 4
  store i32 0, i32* %1, align 4
  %12 = call i32 (i8*, ...) @__isoc99_scanf(i8* getelementptr inbounds ([3 x i8], [3 x i8]* @.str, i64 0, i64 0), i32* %3)
  %13 = load i32, i32* %3, align 4
  store i32 %13, i32* %2, align 4
  store i32 1, i32* %5, align 4
  store i32 2, i32* %6, align 4
  store i32 3, i32* %7, align 4
  %14 = load i32, i32* %3, align 4
  %15 = icmp eq i32 %14, 1
  br i1 %15, label %16, label %18

16:                                               ; preds = %0
  %17 = call i32 (i8*, ...) @printf(i8* getelementptr inbounds ([3 x i8], [3 x i8]* @.str.1, i64 0, i64 0), i8* getelementptr inbounds ([4 x i8], [4 x i8]* @.str.2, i64 0, i64 0))
  br label %47

18:                                               ; preds = %0
  br label %19

19:                                               ; preds = %44, %18
  %20 = load i32, i32* %3, align 4
  %21 = icmp sgt i32 %20, 1
  br i1 %21, label %22, label %45

22:                                               ; preds = %19
  %23 = load i32, i32* %3, align 4
  %24 = srem i32 %23, 2
  %25 = icmp eq i32 %24, 0
  br i1 %25, label %26, label %34

26:                                               ; preds = %22
  %27 = load i32, i32* %3, align 4
  %28 = sdiv i32 %27, 2
  store i32 %28, i32* %2, align 4
  %29 = load i32, i32* %3, align 4
  %30 = load i32, i32* %6, align 4
  %31 = load i32, i32* %2, align 4
  %32 = call i32 (i8*, ...) @printf(i8* getelementptr inbounds ([12 x i8], [12 x i8]* @.str.3, i64 0, i64 0), i32 %29, i32 47, i32 %30, i32 61, i32 %31)
  %33 = load i32, i32* %2, align 4
  store i32 %33, i32* %3, align 4
  br label %44

34:                                               ; preds = %22
  %35 = load i32, i32* %3, align 4
  %36 = mul nsw i32 %35, 3
  %37 = add nsw i32 %36, 1
  store i32 %37, i32* %2, align 4
  %38 = load i32, i32* %3, align 4
  %39 = load i32, i32* %7, align 4
  %40 = load i32, i32* %5, align 4
  %41 = load i32, i32* %2, align 4
  %42 = call i32 (i8*, ...) @printf(i8* getelementptr inbounds ([16 x i8], [16 x i8]* @.str.4, i64 0, i64 0), i32 %38, i32 42, i32 %39, i32 43, i32 %40, i32 61, i32 %41)
  %43 = load i32, i32* %2, align 4
  store i32 %43, i32* %3, align 4
  br label %44

44:                                               ; preds = %34, %26
  br label %19

45:                                               ; preds = %19
  %46 = call i32 (i8*, ...) @printf(i8* getelementptr inbounds ([3 x i8], [3 x i8]* @.str.1, i64 0, i64 0), i8* getelementptr inbounds ([4 x i8], [4 x i8]* @.str.2, i64 0, i64 0))
  br label %47

47:                                               ; preds = %45, %16
  ret i32 0
}

declare dso_local i32 @__isoc99_scanf(i8*, ...) #1

declare dso_local i32 @printf(i8*, ...) #1


!llvm.module.flags = !{!0}
!llvm.ident = !{!1}

!0 = !{i32 1, !"wchar_size", i32 4}
!1 = !{!"clang version 10.0.0-4ubuntu1 "}
